target datalayout = "e-m:e-p270:32:32-p271:32:32-p272:64:64-i64:64-i128:128-f80:128-n8:16:32:64-S128"
target triple = "x86_64-pc-linux-gnu"

%struct.pdf_dict = type { ptr, ptr }
%struct.pdf_dict_node = type { ptr, ptr, i64, i32, ptr, ptr }

@.str.9 = private unnamed_addr constant [19 x i8] c"dict[%lu][%s]: %s\0A\00", align 1
@.str.10 = private unnamed_addr constant [25 x i8] c"dict[%lu][%s]: Array =>\0A\00", align 1

; Function Attrs: nounwind uwtable
define void @pdf_print_dict(ptr noundef %0, i64 noundef %1) #0 {
  %3 = alloca ptr, align 8
  %4 = alloca i64, align 8
  %5 = alloca ptr, align 8
  store ptr %0, ptr %3, align 8
  store i64 %1, ptr %4, align 8
  %6 = load ptr, ptr %3, align 8
  %7 = getelementptr inbounds %struct.pdf_dict, ptr %6, i32 0, i32 0
  %8 = load ptr, ptr %7, align 8
  store ptr %8, ptr %5, align 8
  br label %9

9:                                                ; preds = %53, %2
  %10 = load ptr, ptr %5, align 8
  %11 = icmp ne ptr %10, null
  br i1 %11, label %12, label %57

12:                                               ; preds = %9
  %13 = load ptr, ptr %5, align 8
  %14 = getelementptr inbounds %struct.pdf_dict_node, ptr %13, i32 0, i32 3
  %15 = load i32, ptr %14, align 8
  %16 = icmp eq i32 %15, 1
  br i1 %16, label %17, label %25

17:                                               ; preds = %12
  %18 = load i64, ptr %4, align 8
  %19 = load ptr, ptr %5, align 8
  %20 = getelementptr inbounds %struct.pdf_dict_node, ptr %19, i32 0, i32 0
  %21 = load ptr, ptr %20, align 8
  %22 = load ptr, ptr %5, align 8
  %23 = getelementptr inbounds %struct.pdf_dict_node, ptr %22, i32 0, i32 1
  %24 = load ptr, ptr %23, align 8
  call void (ptr, ...) @cli_errmsg(ptr noundef @.str.9, i64 noundef %18, ptr noundef %21, ptr noundef %24)
  br label %52

25:                                               ; preds = %12
  %26 = load ptr, ptr %5, align 8
  %27 = getelementptr inbounds %struct.pdf_dict_node, ptr %26, i32 0, i32 3
  %28 = load i32, ptr %27, align 8
  %29 = icmp eq i32 %28, 2
  br i1 %29, label %30, label %39

30:                                               ; preds = %25
  %31 = load i64, ptr %4, align 8
  %32 = load ptr, ptr %5, align 8
  %33 = getelementptr inbounds %struct.pdf_dict_node, ptr %32, i32 0, i32 0
  %34 = load ptr, ptr %33, align 8
  call void (ptr, ...) @cli_errmsg(ptr noundef @.str.10, i64 noundef %31, ptr noundef %34)
  %35 = load ptr, ptr %5, align 8
  %36 = getelementptr inbounds %struct.pdf_dict_node, ptr %35, i32 0, i32 1
  %37 = load ptr, ptr %36, align 8
  %38 = load i64, ptr %4, align 8
  call void @pdf_print_array(ptr noundef %37, i64 noundef %38)
  br label %51

39:                                               ; preds = %25
  %40 = load ptr, ptr %5, align 8
  %41 = getelementptr inbounds %struct.pdf_dict_node, ptr %40, i32 0, i32 3
  %42 = load i32, ptr %41, align 8
  %43 = icmp eq i32 %42, 3
  br i1 %43, label %44, label %50

44:                                               ; preds = %39
  %45 = load ptr, ptr %5, align 8
  %46 = getelementptr inbounds %struct.pdf_dict_node, ptr %45, i32 0, i32 1
  %47 = load ptr, ptr %46, align 8
  %48 = load i64, ptr %4, align 8
  %49 = add i64 %48, 1
  call void @pdf_print_dict(ptr noundef %47, i64 noundef %49)
  br label %50

50:                                               ; preds = %44, %39
  br label %51

51:                                               ; preds = %50, %30
  br label %52

52:                                               ; preds = %51, %17
  br label %53

53:                                               ; preds = %52
  %54 = load ptr, ptr %5, align 8
  %55 = getelementptr inbounds %struct.pdf_dict_node, ptr %54, i32 0, i32 5
  %56 = load ptr, ptr %55, align 8
  store ptr %56, ptr %5, align 8
  br label %9

57:                                               ; preds = %9
  ret void
}