; Function Attrs: nounwind uwtable
define void @pdf_print_dict(ptr nocapture noundef readonly %0, i64 noundef %1) local_unnamed_addr #0 {
  %.015 = load ptr, ptr %0, align 8
  %.not16 = icmp eq ptr %.015, null
  br i1 %.not16, label %._crit_edge, label %.lr.ph

.lr.ph:                                           ; preds = %2
  %3 = add i64 %1, 1
  br label %4

4:                                                ; preds = %.lr.ph, %18
  %.017 = phi ptr [ %.015, %.lr.ph ], [ %.0, %18 ]
  %5 = getelementptr inbounds i8, ptr %.017, i64 24
  %6 = load i32, ptr %5, align 8
  switch i32 %6, label %18 [
    i32 1, label %7
    i32 2, label %11
    i32 3, label %15
  ]

7:                                                ; preds = %4
  %8 = load ptr, ptr %.017, align 8
  %9 = getelementptr inbounds i8, ptr %.017, i64 8
  %10 = load ptr, ptr %9, align 8
  tail call void (ptr, ...) @cli_errmsg(ptr noundef nonnull @.str.9, i64 noundef %1, ptr noundef %8, ptr noundef %10) #14
  br label %18

11:                                               ; preds = %4
  %12 = load ptr, ptr %.017, align 8
  tail call void (ptr, ...) @cli_errmsg(ptr noundef nonnull @.str.10, i64 noundef %1, ptr noundef %12) #14
  %13 = getelementptr inbounds i8, ptr %.017, i64 8
  %14 = load ptr, ptr %13, align 8
  tail call void @pdf_print_array(ptr noundef %14, i64 noundef %1)
  br label %18

15:                                               ; preds = %4
  %16 = getelementptr inbounds i8, ptr %.017, i64 8
  %17 = load ptr, ptr %16, align 8
  tail call void @pdf_print_dict(ptr noundef %17, i64 noundef %3)
  br label %18

18:                                               ; preds = %4, %7, %15, %11
  %19 = getelementptr inbounds i8, ptr %.017, i64 40
  %.0 = load ptr, ptr %19, align 8
  %.not = icmp eq ptr %.0, null
  br i1 %.not, label %._crit_edge, label %4

._crit_edge:                                      ; preds = %18, %2
  ret void
}